; Function Attrs: nounwind uwtable
define internal fastcc ptr @insert_new_cell(ptr noundef nonnull %0, i32 noundef %1) unnamed_addr #0 {
  %3 = getelementptr inbounds nuw i8, ptr %0, i64 4
  %4 = load i32, ptr %3, align 4
  %5 = getelementptr inbounds nuw i8, ptr %0, i64 8
  %6 = load i32, ptr %5, align 8
  %.not = icmp slt i32 %4, %6
  br i1 %.not, label %31, label %7

7:                                                ; preds = %2
  %8 = add i32 %4, 1
  %9 = tail call i32 @llvm.smax.i32(i32 %8, i32 16)
  %10 = tail call range(i32 1, 32) i32 @llvm.ctpop.i32(i32 %9)
  %11 = icmp samesign ult i32 %10, 2
  %12 = tail call range(i32 0, 33) i32 @llvm.ctlz.i32(i32 %9, i1 true)
  %13 = xor i32 %12, 31
  %14 = shl nuw i32 2, %13
  %.0.i.i = select i1 %11, i32 %9, i32 %14
  %15 = getelementptr inbounds nuw i8, ptr %0, i64 16
  %16 = load ptr, ptr %15, align 8
  %17 = getelementptr inbounds nuw i8, ptr %0, i64 24
  %18 = icmp eq ptr %16, %17
  br i1 %18, label %19, label %27

19:                                               ; preds = %7
  %20 = tail call ptr @GetMemoryChunkContext(ptr noundef nonnull %0) #9
  %21 = sext i32 %.0.i.i to i64
  %22 = shl nsw i64 %21, 3
  %23 = tail call ptr @MemoryContextAlloc(ptr noundef %20, i64 noundef %22) #9
  store ptr %23, ptr %15, align 8
  %24 = load i32, ptr %3, align 4
  %25 = sext i32 %24 to i64
  %26 = shl nsw i64 %25, 3
  tail call void @llvm.memcpy.p0.p0.i64(ptr align 8 %23, ptr nonnull align 8 %17, i64 %26, i1 false)
  br label %enlarge_list.exit

27:                                               ; preds = %7
  %28 = sext i32 %.0.i.i to i64
  %29 = shl nsw i64 %28, 3
  %30 = tail call ptr @repalloc(ptr noundef %16, i64 noundef %29) #9
  store ptr %30, ptr %15, align 8
  br label %enlarge_list.exit

enlarge_list.exit:                                ; preds = %19, %27
  store i32 %.0.i.i, ptr %5, align 8
  %.pre = load i32, ptr %3, align 4
  br label %31

31:                                               ; preds = %enlarge_list.exit, %2
  %32 = phi i32 [ %.pre, %enlarge_list.exit ], [ %4, %2 ]
  %33 = icmp slt i32 %1, %32
  br i1 %33, label %34, label %._crit_edge

._crit_edge:                                      ; preds = %31
  %.pre17 = sext i32 %1 to i64
  br label %43

34:                                               ; preds = %31
  %35 = getelementptr inbounds nuw i8, ptr %0, i64 16
  %36 = load ptr, ptr %35, align 8
  %37 = sext i32 %1 to i64
  %38 = getelementptr %union.ListCell, ptr %36, i64 %37
  %39 = getelementptr i8, ptr %38, i64 8
  %40 = sub i32 %32, %1
  %41 = sext i32 %40 to i64
  %42 = shl nsw i64 %41, 3
  tail call void @llvm.memmove.p0.p0.i64(ptr align 8 %39, ptr align 8 %38, i64 %42, i1 false)
  %.pre16 = load i32, ptr %3, align 4
  br label %43

43:                                               ; preds = %._crit_edge, %34
  %.pre-phi = phi i64 [ %.pre17, %._crit_edge ], [ %37, %34 ]
  %44 = phi i32 [ %32, %._crit_edge ], [ %.pre16, %34 ]
  %45 = add i32 %44, 1
  store i32 %45, ptr %3, align 4
  %46 = getelementptr inbounds nuw i8, ptr %0, i64 16
  %47 = load ptr, ptr %46, align 8
  %48 = getelementptr inbounds %union.ListCell, ptr %47, i64 %.pre-phi
  ret ptr %48
}